Certificate:
    Data:
        Version: 3 (0x2)
        Serial Number: 3 (0x3)
        Signature Algorithm: sha1WithRSAEncryption
        Issuer: C=US, ST=California, L=San Francisco, O=Tursom Foundation, CN=Tursom Foundation CA
        Validity
            Not Before: Apr 10 20:53:34 2010 GMT
            Not After : Apr 10 20:53:34 2011 GMT
        Subject: C=US, ST=California, O=Tursom Foundation, CN=bock.tursom.org
        Subject Public Key Info:
            Public Key Algorithm: rsaEncryption
            RSA Public Key: (2048 bit)
                Modulus (2048 bit):
                    00:a7:53:67:67:1a:02:28:af:d6:c3:cc:5c:4a:a7:
                    b3:71:2d:ce:8b:00:cc:bb:78:bf:b7:87:b1:97:e1:
                    1d:a1:1c:e8:96:90:67:97:f3:a8:f4:93:83:05:72:
                    f4:14:26:d3:41:ba:82:9e:95:04:4c:e4:e3:3f:ad:
                    41:b3:a4:fa:b2:47:15:1a:5b:c7:34:9e:f7:cd:ac:
                    60:19:4d:f8:6f:8a:26:66:c3:3a:52:9e:de:4e:b5:
                    0c:12:a9:bd:04:98:d9:a8:dd:e2:13:0e:11:07:fe:
                    c3:41:a2:b5:e4:88:49:fe:b0:eb:db:15:bc:d8:59:
                    96:97:9a:43:f7:cb:c6:a0:a9:3f:1d:9e:18:4c:e2:
                    1e:5a:5e:98:82:f2:80:5c:fd:00:89:d1:ec:eb:a1:
                    e1:c5:fa:e7:5a:c0:b7:43:84:9a:bb:4a:0e:80:06:
                    3d:96:6f:d6:ec:89:d1:76:d0:1a:42:5e:b7:4e:7d:
                    63:4c:b1:7e:2b:9d:a9:9b:f2:16:95:82:2e:ce:5c:
                    17:74:16:eb:be:a6:17:78:67:8b:4d:56:5e:21:d2:
                    b6:e2:9b:87:c3:32:f7:74:7f:fe:35:d9:04:37:4f:
                    76:b7:2d:90:be:2d:08:85:97:a8:91:d5:78:a1:de:
                    a1:25:8c:99:e3:d7:43:02:2f:f6:8e:4a:89:fc:2b:
                    2e:45
                Exponent: 65537 (0x10001)
        X509v3 extensions:
            X509v3 Basic Constraints: 
                CA:FALSE
            Netscape Comment: 
                OpenSSL Generated Certificate
            X509v3 Subject Key Identifier: 
                34:62:39:EA:39:F4:69:0F:B7:1D:F1:D2:2D:B3:3F:34:5C:91:40:1F
            X509v3 Authority Key Identifier: 
                keyid:9A:5D:21:51:68:DD:D2:3D:56:0F:B7:BA:9B:BA:2C:07:04:E3:D4:D9
                DirName:/C=US/ST=California/L=San Francisco/O=Tursom Foundation/CN=Tursom Foundation CA
                serial:BC:23:FD:EE:BD:79:AE:69

            X509v3 Key Usage: 
                Digital Signature, Non Repudiation, Key Encipherment
            X509v3 Subject Alternative Name: 
                <EMPTY>

    Signature Algorithm: sha1WithRSAEncryption
        8d:3d:80:ba:4d:8f:83:d9:06:b5:36:9b:87:ea:d2:6a:85:78:
        06:8b:00:33:02:b5:7c:66:03:a5:70:19:40:7e:02:44:89:1b:
        9e:30:99:e6:6d:9d:9f:01:22:72:c2:80:4b:3f:e4:e6:9b:1e:
        7d:9e:1f:41:62:fe:6e:a1:d7:e2:28:84:46:96:d3:56:38:24:
        d1:84:5c:cf:f1:6c:e0:07:61:cd:fd:9c:1a:dc:c6:63:e8:50:
        b2:85:2c:e8:24:4a:d5:84:3a:78:58:86:93:4a:2b:4c:f7:7b:
        ef:89:e7:fa:1f:9a:74:ea:2c:e4:eb:46:98:a6:e2:32:14:4f:
        04:e3:9b:63:95:97:4d:73:97:d5:f1:73:58:d4:2a:a5:c4:84:
        0d:a1:19:4f:e7:84:13:27:5d:77:a2:0e:c8:9b:6c:bf:6a:0f:
        52:37:fa:5d:2b:04:ae:cb:31:a4:f6:37:c9:a1:06:d0:06:7f:
        7e:cc:a6:df:0e:26:7b:59:6f:d4:cd:ca:eb:f6:2a:26:5f:23:
        09:41:72:2a:88:d2:a3:70:eb:a9:a8:c4:5f:39:62:8f:95:4b:
        15:1d:21:57:ac:c7:11:37:88:de:5d:96:e2:44:87:c0:60:bb:
        f6:f5:50:b2:c2:51:88:e7:96:27:e7:15:79:9c:a8:66:93:c6:
        ce:cf:5d:9c:76:6e:b9:3c:3c:dd:f3:8c:8d:d9:c3:f2:9a:83:
        35:b4:c5:54:df:23:3d:5c:45:6a:1a:28:41:65:3a:65:05:39:
        54:8a:1a:a7:9e:96:84:84:54:d2:4e:6d:81:10:4d:98:b1:3b:
        52:14:8d:00:23:0d:25:97:71:5f:88:7c:81:aa:87:1d:72:1d:
        9a:5d:21:1b:f1:47:b8:5a:9b:54:7b:99:f1:53:d3:be:37:68:
        02:25:8e:e0:f0:34:58:43:18:40:a6:2a:dc:a2:7f:68:c1:76:
        71:10:46:1f:d0:b3:b6:1e:f2:53:b9:1a:97:7c:2f:d2:23:5c:
        04:d7:bb:b6:86:02:5f:d6:05:58:75:9b:21:82:45:6f:e3:bc:
        30:8d:51:8e:00:ec:b3:49:b7:d6:11:f7:23:44:bf:61:10:a7:
        0e:bd:72:61:30:38:c5:a8:43:a3:64:b3:73:9a:e0:e6:6f:6b:
        30:68:14:59:f1:b0:af:05:e6:9e:75:95:49:05:75:c9:89:08:
        c7:df:58:b1:37:d9:94:af:a0:a8:08:59:cc:1d:1e:94:c9:f4:
        b2:44:fd:8c:d1:c0:a8:75:58:a1:eb:3f:64:2b:6e:44:58:8f:
        9f:25:f2:f5:17:95:13:73:b9:83:5c:9e:81:d2:21:53:6c:da:
        10:ca:8d:05:36:6b:b7:d1
-----BEGIN CERTIFICATE-----
MIIFaDCCA1CgAwIBAgIBAzANBgkqhkiG9w0BAQUFADB1MQswCQYDVQQGEwJVUzET
MBEGA1UECBMKQ2FsaWZvcm5pYTEWMBQGA1UEBxMNU2FuIEZyYW5jaXNjbzEaMBgG
A1UEChMRVHVyc29tIEZvdW5kYXRpb24xHTAbBgNVBAMTFFR1cnNvbSBGb3VuZGF0
aW9uIENBMB4XDTEwMDQxMDIwNTMzNFoXDTExMDQxMDIwNTMzNFowWDELMAkGA1UE
BhMCVVMxEzARBgNVBAgTCkNhbGlmb3JuaWExGjAYBgNVBAoTEVR1cnNvbSBGb3Vu
ZGF0aW9uMRgwFgYDVQQDEw9ib2NrLnR1cnNvbS5vcmcwggEiMA0GCSqGSIb3DQEB
AQUAA4IBDwAwggEKAoIBAQCnU2dnGgIor9bDzFxKp7NxLc6LAMy7eL+3h7GX4R2h
HOiWkGeX86j0k4MFcvQUJtNBuoKelQRM5OM/rUGzpPqyRxUaW8c0nvfNrGAZTfhv
iiZmwzpSnt5OtQwSqb0EmNmo3eITDhEH/sNBorXkiEn+sOvbFbzYWZaXmkP3y8ag
qT8dnhhM4h5aXpiC8oBc/QCJ0ezroeHF+udawLdDhJq7Sg6ABj2Wb9bsidF20BpC
XrdOfWNMsX4rnamb8haVgi7OXBd0Fuu+phd4Z4tNVl4h0rbim4fDMvd0f/412QQ3
T3a3LZC+LQiFl6iR1Xih3qEljJnj10MCL/aOSon8Ky5FAgMBAAGjggEeMIIBGjAJ
BgNVHRMEAjAAMCwGCWCGSAGG+EIBDQQfFh1PcGVuU1NMIEdlbmVyYXRlZCBDZXJ0
aWZpY2F0ZTAdBgNVHQ4EFgQUNGI56jn0aQ+3HfHSLbM/NFyRQB8wgacGA1UdIwSB
nzCBnIAUml0hUWjd0j1WD7e6m7osBwTj1NmheaR3MHUxCzAJBgNVBAYTAlVTMRMw
EQYDVQQIEwpDYWxpZm9ybmlhMRYwFAYDVQQHEw1TYW4gRnJhbmNpc2NvMRowGAYD
VQQKExFUdXJzb20gRm91bmRhdGlvbjEdMBsGA1UEAxMUVHVyc29tIEZvdW5kYXRp
b24gQ0GCCQC8I/3uvXmuaTALBgNVHQ8EBAMCBeAwCQYDVR0RBAIwADANBgkqhkiG
9w0BAQUFAAOCAgEAjT2Auk2Pg9kGtTabh+rSaoV4BosAMwK1fGYDpXAZQH4CRIkb
njCZ5m2dnwEicsKASz/k5psefZ4fQWL+bqHX4iiERpbTVjgk0YRcz/Fs4Adhzf2c
GtzGY+hQsoUs6CRK1YQ6eFiGk0orTPd774nn+h+adOos5OtGmKbiMhRPBOObY5WX
TXOX1fFzWNQqpcSEDaEZT+eEEyddd6IOyJtsv2oPUjf6XSsErssxpPY3yaEG0AZ/
fsym3w4me1lv1M3K6/YqJl8jCUFyKojSo3DrqajEXzlij5VLFR0hV6zHETeI3l2W
4kSHwGC79vVQssJRiOeWJ+cVeZyoZpPGzs9dnHZuuTw83fOMjdnD8pqDNbTFVN8j
PVxFahooQWU6ZQU5VIoap56WhIRU0k5tgRBNmLE7UhSNACMNJZdxX4h8gaqHHXId
ml0hG/FHuFqbVHuZ8VPTvjdoAiWO4PA0WEMYQKYq3KJ/aMF2cRBGH9Czth7yU7ka
l3wv0iNcBNe7toYCX9YFWHWbIYJFb+O8MI1RjgDss0m31hH3I0S/YRCnDr1yYTA4
xahDo2Szc5rg5m9rMGgUWfGwrwXmnnWVSQV1yYkIx99YsTfZlK+gqAhZzB0elMn0
skT9jNHAqHVYoes/ZCtuRFiPnyXy9ReVE3O5g1yegdIhU2zaEMqNBTZrt9E=
-----END CERTIFICATE-----
